; Function Attrs: nounwind uwtable
define hidden i32 @mbedtls_md_hmac_finish(ptr noundef %0, ptr noundef %1) local_unnamed_addr #3 {
  %3 = alloca [64 x i8], align 16
  call void @llvm.lifetime.start.p0(i64 64, ptr nonnull %3) #14
  %4 = icmp eq ptr %0, null
  br i1 %4, label %34, label %5

5:                                                ; preds = %2
  %6 = load ptr, ptr %0, align 8, !tbaa !3
  %7 = icmp eq ptr %6, null
  br i1 %7, label %34, label %8

8:                                                ; preds = %5
  %9 = getelementptr inbounds nuw i8, ptr %0, i64 16
  %10 = load ptr, ptr %9, align 8, !tbaa !13
  %11 = icmp eq ptr %10, null
  br i1 %11, label %34, label %12

12:                                               ; preds = %8
  %13 = getelementptr inbounds nuw i8, ptr %6, i64 5
  %14 = load i8, ptr %13, align 1, !tbaa !14
  %15 = zext i8 %14 to i64
  %16 = getelementptr inbounds nuw i8, ptr %10, i64 %15
  %17 = call i32 @mbedtls_md_finish(ptr noundef nonnull %0, ptr noundef nonnull %3)
  %.not = icmp eq i32 %17, 0
  br i1 %.not, label %18, label %34

18:                                               ; preds = %12
  %19 = call i32 @mbedtls_md_starts(ptr noundef nonnull %0)
  %.not25 = icmp eq i32 %19, 0
  br i1 %.not25, label %20, label %34

20:                                               ; preds = %18
  %21 = load ptr, ptr %0, align 8, !tbaa !3
  %22 = getelementptr inbounds nuw i8, ptr %21, i64 5
  %23 = load i8, ptr %22, align 1, !tbaa !14
  %24 = zext i8 %23 to i64
  %25 = call i32 @mbedtls_md_update(ptr noundef nonnull %0, ptr noundef nonnull %16, i64 noundef %24)
  %.not26 = icmp eq i32 %25, 0
  br i1 %.not26, label %26, label %34

26:                                               ; preds = %20
  %27 = load ptr, ptr %0, align 8, !tbaa !3
  %28 = getelementptr inbounds nuw i8, ptr %27, i64 4
  %29 = load i8, ptr %28, align 4, !tbaa !15
  %30 = zext i8 %29 to i64
  %31 = call i32 @mbedtls_md_update(ptr noundef nonnull %0, ptr noundef nonnull %3, i64 noundef %30)
  %.not27 = icmp eq i32 %31, 0
  br i1 %.not27, label %32, label %34

32:                                               ; preds = %26
  %33 = call i32 @mbedtls_md_finish(ptr noundef nonnull %0, ptr noundef %1)
  br label %34

34:                                               ; preds = %26, %20, %18, %12, %2, %5, %8, %32
  %.0 = phi i32 [ %33, %32 ], [ -20736, %8 ], [ -20736, %5 ], [ -20736, %2 ], [ %17, %12 ], [ %19, %18 ], [ %25, %20 ], [ %31, %26 ]
  call void @llvm.lifetime.end.p0(i64 64, ptr nonnull %3) #14
  ret i32 %.0
}